Certificate:
    Data:
        Version: 3 (0x2)
        Serial Number: 1 (0x1)
    Signature Algorithm: sha256WithRSAEncryption
        Issuer: C=US, ST=Denial, L=Springfield, O=Dis, CN=ca
        Validity
            Not Before: Dec 10 14:08:31 2017 GMT
            Not After : Dec 11 14:08:31 2017 GMT
        Subject: C=US, ST=Denial, O=Dis, CN=invalid
        Subject Public Key Info:
            Public Key Algorithm: rsaEncryption
                Public-Key: (4096 bit)
                Modulus:
                    00:bc:cf:f7:1c:1d:7a:7a:03:d0:5d:ef:cd:fd:02:
                    bd:7b:f7:bc:04:33:34:83:5a:94:c3:05:9d:d9:b7:
                    b6:0b:e8:d4:7e:76:cb:0b:60:f1:b0:1e:c7:a5:b4:
                    02:df:ae:17:11:5c:b5:f7:eb:90:bf:17:f0:8f:ce:
                    a2:2a:2f:ef:af:06:fc:d2:86:cb:57:c7:74:39:7b:
                    0b:17:e5:2b:10:a0:80:c8:cc:a8:9f:e9:7b:56:6a:
                    ed:ea:93:53:74:0b:04:57:cf:f8:4f:39:33:be:89:
                    3f:e6:39:ac:32:89:5a:c7:14:6e:25:4c:07:cf:6b:
                    95:b0:2b:bc:3a:f2:b0:28:c9:01:ac:bb:04:09:98:
                    f5:f1:a6:94:8f:6e:12:e0:92:1b:a4:ec:82:fa:0f:
                    e3:6d:95:61:a8:e9:f4:0f:18:71:2c:8b:74:10:e6:
                    11:93:7e:e8:f2:d7:ee:0e:71:b1:2f:bd:38:4b:20:
                    ed:bb:db:09:5d:59:b5:b6:c8:5a:07:61:37:6d:53:
                    6a:64:d5:c2:3c:22:36:2c:88:2b:2e:c1:d7:bf:46:
                    5c:dd:98:eb:fa:35:e7:f6:4d:a1:d7:52:49:a2:44:
                    ca:af:64:e0:87:30:fe:05:7f:7c:dd:2c:46:35:34:
                    64:46:08:05:3b:19:0b:3e:c4:94:c3:b6:94:50:4c:
                    56:1f:b5:71:bd:66:18:4b:c7:ed:52:27:96:2a:0a:
                    0d:f8:32:3f:b6:df:b2:d0:16:d7:ff:69:f9:67:a2:
                    74:0e:b4:81:cd:be:5c:67:bc:7b:aa:4f:1d:29:4c:
                    9b:0b:a9:ac:0e:db:ec:12:fa:2f:85:2a:a4:11:3e:
                    db:40:ac:e5:28:8e:d5:d5:f2:fd:16:e3:9a:e3:55:
                    c3:90:a9:65:68:1c:10:a7:b5:c2:ff:af:e2:ff:79:
                    33:9c:ae:c3:63:54:ff:01:cc:c1:1c:2e:45:0d:70:
                    94:10:70:2d:60:45:f0:3e:f7:5c:eb:cd:77:65:2c:
                    be:5d:8e:eb:57:99:a4:3e:e3:09:e1:16:c2:f4:55:
                    30:e9:a8:29:26:28:64:bf:a9:2a:69:6c:8d:d0:ea:
                    d0:40:2b:8a:75:34:31:d3:78:3b:8c:d0:95:6c:86:
                    4b:8d:57:a3:1c:6e:95:6e:2d:0f:1a:2c:6e:72:04:
                    c3:c0:21:4f:f8:b4:5f:ab:3a:c9:0f:ba:57:53:2f:
                    7a:f7:41:6b:cf:7c:5e:e6:52:6f:f5:ef:46:84:d2:
                    0b:28:be:a4:1f:6a:48:bb:fa:5e:ea:7f:63:44:d7:
                    4c:79:7b:30:f1:88:6e:25:a8:c5:04:39:71:9a:83:
                    97:a4:30:a9:e2:c7:03:8a:c5:df:59:1b:61:41:50:
                    af:72:67
                Exponent: 65537 (0x10001)
        X509v3 extensions:
            X509v3 Basic Constraints: 
                CA:FALSE
            Netscape Comment: 
                OpenSSL Generated Certificate
            X509v3 Subject Key Identifier: 
                F7:94:80:B8:10:62:CA:3F:15:AE:55:91:9E:59:AB:4F:B8:47:4A:34
            X509v3 Authority Key Identifier: 
                keyid:BC:D2:46:D8:BC:F1:F1:35:63:E8:83:2F:8D:E0:63:1B:79:CB:A3:4F

    Signature Algorithm: sha256WithRSAEncryption
         d3:1a:44:ed:bc:b6:a3:4c:16:9c:21:9c:ae:24:7c:5d:45:b7:
         ee:12:73:a3:b5:8c:7d:7e:71:5c:89:8c:7e:38:bf:9b:a8:c7:
         c2:a9:2d:4c:9d:37:a5:ff:da:28:ce:49:3d:58:1b:28:5d:a6:
         50:30:52:8b:18:d6:b5:2c:fb:54:bd:f8:d8:c6:0f:bc:5e:20:
         50:e8:c9:54:c1:47:4c:6e:21:37:f6:f8:24:44:2d:b2:a7:01:
         fd:d8:fa:0e:96:90:fe:ec:4f:30:fa:52:c2:bd:2e:2b:6a:fb:
         bd:3f:30:79:c4:ae:50:7e:e6:45:d2:26:91:2e:74:b7:19:a5:
         03:65:40:68:9c:3d:f8:4f:90:3c:4f:25:fd:f9:a2:eb:35:4c:
         35:52:21:3a:67:d0:f4:1e:a8:d8:1f:d6:1d:81:22:09:7a:33:
         7c:e2:6d:7a:e2:ea:01:6a:51:2c:f9:0b:c4:e8:73:f1:d7:a8:
         a5:40:38:2c:80:a2:c9:8b:fe:d5:ec:c5:85:40:99:35:6b:63:
         ad:b8:21:fb:7e:b0:0f:e6:9a:33:91:b8:f2:0e:c1:5d:7d:23:
         7d:a5:8c:09:a4:78:6b:76:ad:93:fd:09:3e:6f:57:91:3d:8f:
         83:61:0b:7d:d4:18:d7:0f:95:16:de:9f:cc:01:a0:62:16:1d:
         eb:5c:6e:d1:17:f7:75:21:5f:63:7a:16:e1:e3:72:dc:fa:b5:
         60:a7:6f:75:60:bb:a3:78:df:aa:0f:50:e2:9d:83:05:f4:d8:
         ee:be:f7:2f:6f:9e:45:9e:d1:e8:82:e0:b4:47:99:67:2c:f6:
         c8:4c:95:e6:f2:15:6d:a8:e5:4f:8a:c6:7d:ba:d7:3e:16:94:
         02:ee:23:27:f0:07:e4:66:b1:47:a4:11:31:d8:4c:a4:ba:6f:
         f4:69:97:a7:58:2a:ef:61:d4:70:b2:50:25:80:5e:4f:ac:2c:
         0c:51:1e:12:f5:5b:de:7f:c9:c5:6d:ab:97:66:d2:65:48:16:
         3d:03:db:37:29:e8:aa:e4:f8:b4:d3:79:4d:c0:da:73:2d:62:
         97:19:50:e6:26:2f:29:d8:25:4e:69:07:73:74:ea:6c:7c:5e:
         78:0c:d3:94:a2:46:f8:00:ec:c3:f1:3f:b4:76:c0:c8:99:9c:
         2b:8e:7f:51:9b:81:82:1a:b9:c0:17:12:7a:3b:b9:61:0a:06:
         db:34:58:83:28:be:e2:b7:a6:a1:b8:ba:9e:6e:d1:dc:4e:2a:
         b2:5f:73:9c:5c:04:d4:20:69:a6:12:9a:f5:82:66:84:ed:ce:
         ec:59:3c:67:aa:d4:8b:49:49:6a:2a:a4:2d:d3:db:8c:7b:18:
         c2:88:54:ba:db:34:a9:73
-----BEGIN CERTIFICATE-----
MIIFgzCCA2ugAwIBAgIBATANBgkqhkiG9w0BAQsFADBPMQswCQYDVQQGEwJVUzEP
MA0GA1UECAwGRGVuaWFsMRQwEgYDVQQHDAtTcHJpbmdmaWVsZDEMMAoGA1UECgwD
RGlzMQswCQYDVQQDDAJjYTAeFw0xNzEyMTAxNDA4MzFaFw0xNzEyMTExNDA4MzFa
MD4xCzAJBgNVBAYTAlVTMQ8wDQYDVQQIDAZEZW5pYWwxDDAKBgNVBAoMA0RpczEQ
MA4GA1UEAwwHaW52YWxpZDCCAiIwDQYJKoZIhvcNAQEBBQADggIPADCCAgoCggIB
ALzP9xwdenoD0F3vzf0CvXv3vAQzNINalMMFndm3tgvo1H52ywtg8bAex6W0At+u
FxFctffrkL8X8I/Ooiov768G/NKGy1fHdDl7CxflKxCggMjMqJ/pe1Zq7eqTU3QL
BFfP+E85M76JP+Y5rDKJWscUbiVMB89rlbArvDrysCjJAay7BAmY9fGmlI9uEuCS
G6TsgvoP422VYajp9A8YcSyLdBDmEZN+6PLX7g5xsS+9OEsg7bvbCV1ZtbbIWgdh
N21TamTVwjwiNiyIKy7B179GXN2Y6/o15/ZNoddSSaJEyq9k4Icw/gV/fN0sRjU0
ZEYIBTsZCz7ElMO2lFBMVh+1cb1mGEvH7VInlioKDfgyP7bfstAW1/9p+WeidA60
gc2+XGe8e6pPHSlMmwuprA7b7BL6L4UqpBE+20Cs5SiO1dXy/RbjmuNVw5CpZWgc
EKe1wv+v4v95M5yuw2NU/wHMwRwuRQ1wlBBwLWBF8D73XOvNd2Usvl2O61eZpD7j
CeEWwvRVMOmoKSYoZL+pKmlsjdDq0EArinU0MdN4O4zQlWyGS41XoxxulW4tDxos
bnIEw8AhT/i0X6s6yQ+6V1MvevdBa898XuZSb/XvRoTSCyi+pB9qSLv6Xup/Y0TX
THl7MPGIbiWoxQQ5cZqDl6QwqeLHA4rF31kbYUFQr3JnAgMBAAGjezB5MAkGA1Ud
EwQCMAAwLAYJYIZIAYb4QgENBB8WHU9wZW5TU0wgR2VuZXJhdGVkIENlcnRpZmlj
YXRlMB0GA1UdDgQWBBT3lIC4EGLKPxWuVZGeWatPuEdKNDAfBgNVHSMEGDAWgBS8
0kbYvPHxNWPogy+N4GMbecujTzANBgkqhkiG9w0BAQsFAAOCAgEA0xpE7by2o0wW
nCGcriR8XUW37hJzo7WMfX5xXImMfji/m6jHwqktTJ03pf/aKM5JPVgbKF2mUDBS
ixjWtSz7VL342MYPvF4gUOjJVMFHTG4hN/b4JEQtsqcB/dj6DpaQ/uxPMPpSwr0u
K2r7vT8wecSuUH7mRdImkS50txmlA2VAaJw9+E+QPE8l/fmi6zVMNVIhOmfQ9B6o
2B/WHYEiCXozfOJteuLqAWpRLPkLxOhz8deopUA4LICiyYv+1ezFhUCZNWtjrbgh
+36wD+aaM5G48g7BXX0jfaWMCaR4a3atk/0JPm9XkT2Pg2ELfdQY1w+VFt6fzAGg
YhYd61xu0Rf3dSFfY3oW4eNy3Pq1YKdvdWC7o3jfqg9Q4p2DBfTY7r73L2+eRZ7R
6ILgtEeZZyz2yEyV5vIVbajlT4rGfbrXPhaUAu4jJ/AH5GaxR6QRMdhMpLpv9GmX
p1gq72HUcLJQJYBeT6wsDFEeEvVb3n/JxW2rl2bSZUgWPQPbNynoquT4tNN5TcDa
cy1ilxlQ5iYvKdglTmkHc3TqbHxeeAzTlKJG+ADsw/E/tHbAyJmcK45/UZuBghq5
wBcSeju5YQoG2zRYgyi+4remobi6nm7R3E4qsl9znFwE1CBpphKa9YJmhO3O7Fk8
Z6rUi0lJaiqkLdPbjHsYwohUuts0qXM=
-----END CERTIFICATE-----
