Certificate:
    Data:
        Version: 3 (0x2)
        Serial Number: 2 (0x2)
    Signature Algorithm: sha256WithRSAEncryption
        Issuer: C=US, ST=Denial, L=Springfield, O=Dis, CN=ca
        Validity
            Not Before: Dec 10 14:08:32 2017 GMT
            Not After : Dec 10 14:08:32 2018 GMT
        Subject: C=US, ST=Denial, O=Dis, CN=revoked
        Subject Public Key Info:
            Public Key Algorithm: rsaEncryption
                Public-Key: (4096 bit)
                Modulus:
                    00:93:45:47:1a:42:48:64:cd:6d:74:ef:0a:b4:88:
                    1c:8a:6c:20:87:30:27:8c:2e:7a:9b:49:af:47:2d:
                    6b:2c:38:49:4d:00:d2:7c:c1:d9:63:90:53:36:a7:
                    17:f6:68:af:6c:c1:db:cc:5d:b2:e9:a8:80:f9:72:
                    dc:07:c6:ba:c3:f4:25:91:35:20:24:0e:99:48:5b:
                    77:25:4b:ef:2d:fc:16:67:98:98:e7:92:fa:db:48:
                    4b:5a:3f:34:71:db:95:9a:06:a4:ca:67:16:ad:2c:
                    9f:9e:d8:f0:ad:b5:29:56:b2:50:16:46:e2:76:69:
                    cd:6c:47:db:b0:6f:4b:31:eb:ae:d2:3d:65:3e:95:
                    90:d8:5d:86:20:a9:bc:65:dd:a9:a9:67:01:06:9b:
                    46:cc:4c:5f:3d:34:6b:4c:ad:02:89:49:dc:9b:ce:
                    1c:d1:75:11:65:e1:ac:36:07:57:a7:e8:5d:0e:e2:
                    d3:ab:cc:3a:7b:8c:b4:01:da:09:e0:a9:54:d3:81:
                    1c:76:b1:bb:9c:4e:8a:e8:5a:f8:5d:e0:9f:2f:14:
                    54:8f:85:86:a2:b4:14:37:ed:74:88:96:2b:a1:7c:
                    84:2a:00:d7:a8:82:10:cb:55:0d:a0:90:1f:43:f0:
                    b4:39:14:ab:bd:38:c0:65:2f:bf:bd:45:b8:9f:73:
                    fe:cb:95:57:da:b5:5a:94:b9:5d:82:cc:f2:b8:7d:
                    18:f1:ed:e6:81:11:5c:5a:62:48:64:3b:da:19:6f:
                    ab:32:08:f0:2f:6f:d7:e1:12:c4:2d:f0:09:30:a6:
                    a3:f9:2f:6c:70:58:59:bc:3f:f2:28:9b:ff:b9:c1:
                    02:ed:71:d0:cb:d9:06:f9:7a:b3:05:32:5e:66:2e:
                    89:95:4f:b0:32:9d:de:98:1b:e6:8a:9a:1d:92:5a:
                    90:91:71:1b:a9:9a:fd:2b:58:fe:71:7f:80:d8:b8:
                    c3:e7:a7:eb:1c:94:b0:b1:ce:0c:32:1a:fb:c6:0a:
                    99:51:f5:50:f5:fc:c4:9c:d9:0a:75:f3:02:03:2b:
                    1a:c1:9e:df:e6:28:ac:94:85:62:28:cf:91:36:90:
                    40:39:69:ae:85:51:aa:b4:02:12:02:94:90:b3:3d:
                    2a:00:93:f5:9b:f6:70:d0:ef:8a:fe:e3:f0:33:5c:
                    f5:5c:37:df:fa:02:60:e2:b1:95:bd:94:88:b5:a9:
                    a8:81:30:c2:6e:1a:e9:c6:15:de:5d:9a:71:99:5d:
                    bd:32:4e:15:ce:d6:2f:15:0f:f5:92:cd:bb:07:8b:
                    7b:dc:42:b7:90:f6:fb:92:88:78:a8:ac:00:30:8d:
                    7e:12:a7:75:6c:09:4b:c0:ce:79:41:04:39:19:21:
                    80:ca:7f
                Exponent: 65537 (0x10001)
        X509v3 extensions:
            X509v3 Basic Constraints: 
                CA:FALSE
            Netscape Comment: 
                OpenSSL Generated Certificate
            X509v3 Subject Key Identifier: 
                08:92:C2:14:4A:E5:57:5F:C4:F9:E6:DC:A2:2A:9A:8C:F2:84:94:21
            X509v3 Authority Key Identifier: 
                keyid:BC:D2:46:D8:BC:F1:F1:35:63:E8:83:2F:8D:E0:63:1B:79:CB:A3:4F

    Signature Algorithm: sha256WithRSAEncryption
         2d:0f:b7:6b:d8:2a:2b:58:5d:95:e1:05:15:02:dd:27:39:f9:
         d0:37:32:25:a2:38:d1:bd:69:6e:b3:a0:a0:3c:86:c5:0e:72:
         80:29:68:62:a7:eb:1c:8c:53:dc:3c:d2:1b:45:0b:7e:5b:74:
         b0:fa:8a:5f:3a:11:34:fc:36:fd:98:1d:4c:0b:9c:98:e1:d3:
         fc:6b:67:21:21:65:3c:3f:d1:89:35:e8:8c:bd:f1:17:1f:0d:
         b8:e5:7d:7b:ac:23:cb:c1:cd:0e:2e:cf:d5:29:86:9b:16:35:
         58:25:0a:50:95:c8:e4:76:d2:a3:6e:b9:4f:62:c1:26:7e:8d:
         35:53:30:6e:23:94:b2:c7:c2:c1:c8:5d:d3:9b:96:04:56:01:
         fa:87:e2:ad:9a:71:66:3f:a1:60:ac:8c:d4:6b:76:d7:e4:1c:
         9b:05:de:ec:7b:76:0a:2f:f0:0c:90:6e:3b:1e:5e:26:f8:ed:
         d8:f7:2a:47:5f:06:2f:30:a9:22:b0:77:15:0d:8c:c3:a1:86:
         63:86:6c:33:72:7f:f4:46:5c:00:fa:f1:c4:97:be:d3:2e:80:
         ca:8f:62:95:6f:1b:be:25:02:d5:e7:19:0c:15:cd:62:bd:2d:
         da:be:1c:13:f0:27:88:cb:68:d1:ab:8f:e6:7e:b6:c2:a1:07:
         8a:03:5e:b3:e4:17:5b:9a:79:b4:e6:04:74:c8:ba:30:f4:5e:
         54:7d:72:2c:0d:b0:eb:7d:47:b4:48:3f:90:06:bd:99:3e:8f:
         35:ce:a3:2b:b6:75:56:09:05:4c:b4:b8:bf:f5:c4:e1:e8:92:
         f9:39:71:b1:b1:eb:ce:67:1b:c7:89:58:95:90:e7:34:2a:ab:
         d1:9a:b5:46:52:57:df:b9:8a:8a:ce:cc:86:21:e3:06:43:fb:
         52:b2:fb:c1:a0:19:4d:fc:ef:4d:57:76:b2:c8:b4:80:bf:25:
         07:13:79:91:59:00:2c:18:ae:84:40:2a:6b:02:b7:34:86:d5:
         c1:03:46:3b:24:3c:14:77:e0:0a:c2:31:1e:5a:df:da:ec:5f:
         b5:5c:e9:a9:02:d2:14:0c:54:ed:0d:07:b8:35:53:90:cf:89:
         0e:6f:4e:f1:4c:67:9e:f6:4d:12:83:28:3c:3d:d2:7f:60:0f:
         f4:69:08:17:b7:84:e5:f5:6b:aa:1b:b8:57:28:d8:50:79:79:
         2a:ce:17:60:28:29:2b:f7:04:4f:dc:e0:e5:2e:12:b2:0e:4a:
         90:27:6f:eb:d1:44:31:1c:2a:85:09:d1:b7:e0:3c:32:de:34:
         28:93:be:69:9c:0f:0b:c4:61:ce:3a:ae:5e:96:2e:a3:1a:cd:
         ee:fd:d6:33:08:a1:74:25
-----BEGIN CERTIFICATE-----
MIIFgzCCA2ugAwIBAgIBAjANBgkqhkiG9w0BAQsFADBPMQswCQYDVQQGEwJVUzEP
MA0GA1UECAwGRGVuaWFsMRQwEgYDVQQHDAtTcHJpbmdmaWVsZDEMMAoGA1UECgwD
RGlzMQswCQYDVQQDDAJjYTAeFw0xNzEyMTAxNDA4MzJaFw0xODEyMTAxNDA4MzJa
MD4xCzAJBgNVBAYTAlVTMQ8wDQYDVQQIDAZEZW5pYWwxDDAKBgNVBAoMA0RpczEQ
MA4GA1UEAwwHcmV2b2tlZDCCAiIwDQYJKoZIhvcNAQEBBQADggIPADCCAgoCggIB
AJNFRxpCSGTNbXTvCrSIHIpsIIcwJ4wueptJr0ctayw4SU0A0nzB2WOQUzanF/Zo
r2zB28xdsumogPly3AfGusP0JZE1ICQOmUhbdyVL7y38FmeYmOeS+ttIS1o/NHHb
lZoGpMpnFq0sn57Y8K21KVayUBZG4nZpzWxH27BvSzHrrtI9ZT6VkNhdhiCpvGXd
qalnAQabRsxMXz00a0ytAolJ3JvOHNF1EWXhrDYHV6foXQ7i06vMOnuMtAHaCeCp
VNOBHHaxu5xOiuha+F3gny8UVI+FhqK0FDftdIiWK6F8hCoA16iCEMtVDaCQH0Pw
tDkUq704wGUvv71FuJ9z/suVV9q1WpS5XYLM8rh9GPHt5oERXFpiSGQ72hlvqzII
8C9v1+ESxC3wCTCmo/kvbHBYWbw/8iib/7nBAu1x0MvZBvl6swUyXmYuiZVPsDKd
3pgb5oqaHZJakJFxG6ma/StY/nF/gNi4w+en6xyUsLHODDIa+8YKmVH1UPX8xJzZ
CnXzAgMrGsGe3+YorJSFYijPkTaQQDlproVRqrQCEgKUkLM9KgCT9Zv2cNDviv7j
8DNc9Vw33/oCYOKxlb2UiLWpqIEwwm4a6cYV3l2acZldvTJOFc7WLxUP9ZLNuweL
e9xCt5D2+5KIeKisADCNfhKndWwJS8DOeUEEORkhgMp/AgMBAAGjezB5MAkGA1Ud
EwQCMAAwLAYJYIZIAYb4QgENBB8WHU9wZW5TU0wgR2VuZXJhdGVkIENlcnRpZmlj
YXRlMB0GA1UdDgQWBBQIksIUSuVXX8T55tyiKpqM8oSUITAfBgNVHSMEGDAWgBS8
0kbYvPHxNWPogy+N4GMbecujTzANBgkqhkiG9w0BAQsFAAOCAgEALQ+3a9gqK1hd
leEFFQLdJzn50DcyJaI40b1pbrOgoDyGxQ5ygCloYqfrHIxT3DzSG0ULflt0sPqK
XzoRNPw2/ZgdTAucmOHT/GtnISFlPD/RiTXojL3xFx8NuOV9e6wjy8HNDi7P1SmG
mxY1WCUKUJXI5HbSo265T2LBJn6NNVMwbiOUssfCwchd05uWBFYB+ofirZpxZj+h
YKyM1Gt21+QcmwXe7Ht2Ci/wDJBuOx5eJvjt2PcqR18GLzCpIrB3FQ2Mw6GGY4Zs
M3J/9EZcAPrxxJe+0y6Ayo9ilW8bviUC1ecZDBXNYr0t2r4cE/AniMto0auP5n62
wqEHigNes+QXW5p5tOYEdMi6MPReVH1yLA2w631HtEg/kAa9mT6PNc6jK7Z1VgkF
TLS4v/XE4eiS+TlxsbHrzmcbx4lYlZDnNCqr0Zq1RlJX37mKis7MhiHjBkP7UrL7
waAZTfzvTVd2ssi0gL8lBxN5kVkALBiuhEAqawK3NIbVwQNGOyQ8FHfgCsIxHlrf
2uxftVzpqQLSFAxU7Q0HuDVTkM+JDm9O8UxnnvZNEoMoPD3Sf2AP9GkIF7eE5fVr
qhu4VyjYUHl5Ks4XYCgpK/cET9zg5S4Ssg5KkCdv69FEMRwqhQnRt+A8Mt40KJO+
aZwPC8RhzjquXpYuoxrN7v3WMwihdCU=
-----END CERTIFICATE-----
