Certificate:
    Data:
        Version: 3 (0x2)
        Serial Number: 0 (0x0)
    Signature Algorithm: sha256WithRSAEncryption
        Issuer: C=US, ST=Denial, L=Springfield, O=Dis, CN=ca
        Validity
            Not Before: Dec 10 14:08:31 2017 GMT
            Not After : Dec 10 14:08:31 2018 GMT
        Subject: C=US, ST=Denial, O=Dis, CN=signed
        Subject Public Key Info:
            Public Key Algorithm: rsaEncryption
                Public-Key: (4096 bit)
                Modulus:
                    00:e4:8f:76:77:5c:f7:34:4f:ce:f7:59:95:08:bb:
                    c2:10:53:f3:2f:53:8b:87:30:39:fc:5c:db:73:86:
                    5f:f5:47:0b:dc:c2:d9:04:5c:aa:ca:98:d5:d1:1f:
                    74:76:a7:79:62:d6:7c:9b:8c:a8:71:4c:b0:d3:1e:
                    44:e6:4d:c7:01:f2:80:07:62:8d:20:4e:e4:8e:8a:
                    41:82:5d:7b:e7:da:55:2f:d9:2e:92:3a:82:35:a6:
                    71:61:39:0a:7a:f7:60:c0:7a:20:56:f5:2f:10:4a:
                    1a:43:5e:19:68:f5:b2:de:ec:02:e6:a6:5b:ca:bf:
                    1e:2a:95:c4:af:74:b0:8e:02:50:4e:e7:a5:40:f0:
                    ac:67:4b:b2:e7:07:70:16:54:53:05:9d:c9:55:da:
                    48:19:c3:c7:af:c7:c0:56:48:de:89:5b:82:4c:68:
                    f2:b0:e8:37:e1:50:b7:4a:9e:97:e7:56:eb:18:e6:
                    90:ff:36:36:b3:cb:ca:5f:17:99:1f:53:bf:a9:6e:
                    aa:67:ec:d5:91:ee:33:8f:22:25:e8:77:23:fd:7b:
                    68:6c:40:3d:cd:af:70:3e:56:1b:4e:32:92:44:99:
                    75:3f:d5:3a:fa:a4:70:59:a3:0c:4d:a3:c5:1d:b7:
                    97:01:0e:63:a3:fd:64:b1:b4:0d:9a:f2:ad:58:c8:
                    8b:16:86:ae:33:a9:3f:9d:d5:ea:1a:0a:24:b3:57:
                    e3:c9:b4:21:ba:b5:77:6b:b4:7d:75:b5:a3:3a:3a:
                    93:ae:03:aa:5c:83:f2:39:1b:96:b8:88:d4:59:b4:
                    89:62:17:24:1d:45:01:4c:1b:bc:5e:a2:fa:12:34:
                    a8:e8:01:77:33:2e:ba:3e:94:53:03:9d:90:76:3c:
                    8c:b5:86:1f:1f:c4:b0:56:76:35:dd:cc:17:2e:df:
                    99:58:16:50:e7:d5:b0:a9:44:e1:63:b5:a3:1c:ca:
                    2c:9c:ac:aa:06:ad:f5:cc:88:bc:f3:2b:de:15:ba:
                    af:f2:d3:23:90:8f:d0:1c:a1:9d:46:a0:ca:d1:27:
                    09:02:07:63:ce:80:43:cd:56:34:6e:db:4e:7d:07:
                    32:8f:9a:1e:18:0c:2d:d9:31:d6:d3:51:9e:59:fd:
                    32:59:f9:b8:ba:5d:44:73:12:29:34:85:56:76:55:
                    1d:7a:4d:b4:69:d4:9c:c9:1c:2b:c6:dc:a1:84:8b:
                    a9:77:ac:43:13:65:75:8a:40:d3:11:40:ed:ff:8f:
                    ba:9b:5b:7d:e7:90:01:09:c0:2e:1c:94:5f:f6:04:
                    f9:8b:9c:27:44:95:02:53:85:97:36:c9:d0:95:57:
                    a7:d4:a0:2e:cf:90:90:14:06:25:34:97:bc:5f:f9:
                    d6:6d:3f
                Exponent: 65537 (0x10001)
        X509v3 extensions:
            X509v3 Basic Constraints: 
                CA:FALSE
            Netscape Comment: 
                OpenSSL Generated Certificate
            X509v3 Subject Key Identifier: 
                AD:4B:A8:D6:CA:A4:26:92:02:6B:88:BF:EC:DB:06:2B:E3:36:FC:EA
            X509v3 Authority Key Identifier: 
                keyid:BC:D2:46:D8:BC:F1:F1:35:63:E8:83:2F:8D:E0:63:1B:79:CB:A3:4F

    Signature Algorithm: sha256WithRSAEncryption
         2c:dc:df:3e:d5:c2:c1:7c:6e:c2:a3:30:76:fb:8e:8f:67:8d:
         e4:8f:ed:fd:3a:8d:c6:a9:17:22:81:46:b8:9f:07:61:5f:ad:
         5d:85:05:34:f6:22:a0:d6:46:82:ce:27:85:28:8e:a3:8a:55:
         e0:e5:a4:f0:37:ad:ad:11:ec:90:4b:04:21:34:07:3c:1b:f5:
         cc:42:14:d2:01:5d:a9:0a:8e:90:6f:2c:19:31:37:ea:a9:73:
         c7:f8:38:87:d5:7f:9e:b5:fa:dd:05:a1:ba:60:79:6f:68:5b:
         7b:08:ef:40:df:d5:2e:54:ba:1e:59:86:db:08:3d:f2:a0:de:
         06:ae:d1:73:bf:15:a0:68:5d:26:b3:2f:97:75:ef:46:41:53:
         17:0a:1a:ef:3c:cf:b3:54:61:7a:49:fe:56:6d:d7:2f:d4:24:
         bb:b0:74:36:69:49:27:7d:0d:62:69:ee:02:90:be:0d:4f:83:
         7a:e3:1f:a2:14:b4:1e:8c:3c:fb:f8:5a:78:77:6f:15:ad:ff:
         92:a5:60:e5:ae:f5:78:7d:5c:d2:69:ef:02:3a:9a:0f:d5:52:
         d7:43:be:2f:4a:97:5c:bc:30:65:67:91:6d:c4:65:44:ac:60:
         cf:82:e8:00:98:c4:d0:81:25:9b:2d:45:b3:69:d4:02:a1:a9:
         32:e1:62:ab:d6:74:6d:31:b3:12:9d:53:98:2c:66:f3:53:a6:
         a9:be:15:84:b2:48:09:bb:81:a4:5f:75:94:7d:a3:a2:85:a7:
         c6:f5:2d:8b:44:61:c2:d7:27:57:4a:5a:b1:9f:83:59:0d:26:
         a0:c4:de:38:52:a5:e1:62:3c:37:d5:17:f9:5a:25:b3:50:10:
         ac:14:31:66:06:27:65:87:a7:60:e6:10:97:9a:78:c7:4e:41:
         05:2d:cb:04:f3:cb:d2:7a:bc:bd:37:77:80:a6:db:56:b4:4f:
         e4:f2:be:71:80:4d:64:8e:ed:18:72:58:28:0f:b8:a2:42:2d:
         87:a4:ab:81:c8:c1:ae:28:40:10:0d:74:25:51:81:f9:db:52:
         7d:f9:b6:7c:19:05:68:ce:1c:db:e3:2b:02:7b:0c:8d:90:29:
         f9:a3:f0:77:7c:76:ca:fb:86:a1:7c:d2:17:b7:a3:75:fa:1b:
         42:b8:5e:a2:9b:da:74:a7:0d:38:4a:66:6f:90:8a:ee:be:1a:
         10:e1:e0:16:15:39:2a:3d:bb:9e:a5:61:85:48:99:42:cc:29:
         28:e3:dd:ba:6b:4b:81:b3:07:53:69:48:f7:6c:97:d0:0f:ec:
         6e:f4:46:a4:0e:e4:5f:48:41:11:74:11:e3:62:0b:f2:60:dd:
         d0:e6:d9:56:79:af:ee:bd
-----BEGIN CERTIFICATE-----
MIIFgjCCA2qgAwIBAgIBADANBgkqhkiG9w0BAQsFADBPMQswCQYDVQQGEwJVUzEP
MA0GA1UECAwGRGVuaWFsMRQwEgYDVQQHDAtTcHJpbmdmaWVsZDEMMAoGA1UECgwD
RGlzMQswCQYDVQQDDAJjYTAeFw0xNzEyMTAxNDA4MzFaFw0xODEyMTAxNDA4MzFa
MD0xCzAJBgNVBAYTAlVTMQ8wDQYDVQQIDAZEZW5pYWwxDDAKBgNVBAoMA0RpczEP
MA0GA1UEAwwGc2lnbmVkMIICIjANBgkqhkiG9w0BAQEFAAOCAg8AMIICCgKCAgEA
5I92d1z3NE/O91mVCLvCEFPzL1OLhzA5/Fzbc4Zf9UcL3MLZBFyqypjV0R90dqd5
YtZ8m4yocUyw0x5E5k3HAfKAB2KNIE7kjopBgl1759pVL9kukjqCNaZxYTkKevdg
wHogVvUvEEoaQ14ZaPWy3uwC5qZbyr8eKpXEr3SwjgJQTuelQPCsZ0uy5wdwFlRT
BZ3JVdpIGcPHr8fAVkjeiVuCTGjysOg34VC3Sp6X51brGOaQ/zY2s8vKXxeZH1O/
qW6qZ+zVke4zjyIl6Hcj/XtobEA9za9wPlYbTjKSRJl1P9U6+qRwWaMMTaPFHbeX
AQ5jo/1ksbQNmvKtWMiLFoauM6k/ndXqGgoks1fjybQhurV3a7R9dbWjOjqTrgOq
XIPyORuWuIjUWbSJYhckHUUBTBu8XqL6EjSo6AF3My66PpRTA52QdjyMtYYfH8Sw
VnY13cwXLt+ZWBZQ59WwqUThY7WjHMosnKyqBq31zIi88yveFbqv8tMjkI/QHKGd
RqDK0ScJAgdjzoBDzVY0bttOfQcyj5oeGAwt2THW01GeWf0yWfm4ul1EcxIpNIVW
dlUdek20adScyRwrxtyhhIupd6xDE2V1ikDTEUDt/4+6m1t955ABCcAuHJRf9gT5
i5wnRJUCU4WXNsnQlVen1KAuz5CQFAYlNJe8X/nWbT8CAwEAAaN7MHkwCQYDVR0T
BAIwADAsBglghkgBhvhCAQ0EHxYdT3BlblNTTCBHZW5lcmF0ZWQgQ2VydGlmaWNh
dGUwHQYDVR0OBBYEFK1LqNbKpCaSAmuIv+zbBivjNvzqMB8GA1UdIwQYMBaAFLzS
Rti88fE1Y+iDL43gYxt5y6NPMA0GCSqGSIb3DQEBCwUAA4ICAQAs3N8+1cLBfG7C
ozB2+46PZ43kj+39Oo3GqRcigUa4nwdhX61dhQU09iKg1kaCzieFKI6jilXg5aTw
N62tEeyQSwQhNAc8G/XMQhTSAV2pCo6QbywZMTfqqXPH+DiH1X+etfrdBaG6YHlv
aFt7CO9A39UuVLoeWYbbCD3yoN4GrtFzvxWgaF0msy+Xde9GQVMXChrvPM+zVGF6
Sf5Wbdcv1CS7sHQ2aUknfQ1iae4CkL4NT4N64x+iFLQejDz7+Fp4d28Vrf+SpWDl
rvV4fVzSae8COpoP1VLXQ74vSpdcvDBlZ5FtxGVErGDPgugAmMTQgSWbLUWzadQC
oaky4WKr1nRtMbMSnVOYLGbzU6apvhWEskgJu4GkX3WUfaOihafG9S2LRGHC1ydX
Slqxn4NZDSagxN44UqXhYjw31Rf5WiWzUBCsFDFmBidlh6dg5hCXmnjHTkEFLcsE
88vSery9N3eApttWtE/k8r5xgE1kju0YclgoD7iiQi2HpKuByMGuKEAQDXQlUYH5
21J9+bZ8GQVozhzb4ysCewyNkCn5o/B3fHbK+4ahfNIXt6N1+htCuF6im9p0pw04
SmZvkIruvhoQ4eAWFTkqPbuepWGFSJlCzCko4926a0uBswdTaUj3bJfQD+xu9Eak
DuRfSEERdBHjYgvyYN3Q5tlWea/uvQ==
-----END CERTIFICATE-----
